target datalayout = "e-m:e-p270:32:32-p271:32:32-p272:64:64-i64:64-i128:128-f80:128-n8:16:32:64-S128"
target triple = "x86_64-pc-linux-gnu"

%class.FunctionInvocation = type { ptr, i32, %"class.std::vector.13", i8, i8, ptr }
%"class.std::vector.13" = type { %"struct.std::_Vector_base.14" }
%"struct.std::_Vector_base.14" = type { %"struct.std::_Vector_base<const Expression *, std::allocator<const Expression *>>::_Vector_impl" }
%"struct.std::_Vector_base<const Expression *, std::allocator<const Expression *>>::_Vector_impl" = type { %"struct.std::_Vector_base<const Expression *, std::allocator<const Expression *>>::_Vector_impl_data" }
%"struct.std::_Vector_base<const Expression *, std::allocator<const Expression *>>::_Vector_impl_data" = type { ptr, ptr, ptr }
%class.Expression = type { ptr, i32, i32, ptr }

; Function Attrs: mustprogress nounwind uwtable
define linkonce_odr dso_local noundef nonnull align 8 dereferenceable(8) ptr @_ZNKSt6vectorIPK10ExpressionSaIS2_EEixEm(ptr noundef nonnull align 8 dereferenceable(24) %0, i64 noundef %1) #6 comdat align 2 {
  %3 = alloca ptr, align 8
  %4 = alloca i64, align 8
  store ptr %0, ptr %3, align 8, !tbaa !125
  store i64 %1, ptr %4, align 8, !tbaa !145
  %5 = load ptr, ptr %3, align 8
  %6 = getelementptr inbounds nuw %"struct.std::_Vector_base.14", ptr %5, i32 0, i32 0
  %7 = getelementptr inbounds nuw %"struct.std::_Vector_base<const Expression *, std::allocator<const Expression *>>::_Vector_impl_data", ptr %6, i32 0, i32 0
  %8 = load ptr, ptr %7, align 8, !tbaa !148
  %9 = load i64, ptr %4, align 8, !tbaa !145
  %10 = getelementptr inbounds nuw ptr, ptr %8, i64 %9
  ret ptr %10
}

; Function Attrs: mustprogress nounwind uwtable
define linkonce_odr dso_local noundef i64 @_ZNKSt6vectorIPK10ExpressionSaIS2_EE4sizeEv(ptr noundef nonnull align 8 dereferenceable(24) %0) #6 comdat align 2 {
  %2 = alloca ptr, align 8
  store ptr %0, ptr %2, align 8, !tbaa !125
  %3 = load ptr, ptr %2, align 8
  %4 = getelementptr inbounds nuw %"struct.std::_Vector_base.14", ptr %3, i32 0, i32 0
  %5 = getelementptr inbounds nuw %"struct.std::_Vector_base<const Expression *, std::allocator<const Expression *>>::_Vector_impl_data", ptr %4, i32 0, i32 1
  %6 = load ptr, ptr %5, align 8, !tbaa !128
  %7 = getelementptr inbounds nuw %"struct.std::_Vector_base.14", ptr %3, i32 0, i32 0
  %8 = getelementptr inbounds nuw %"struct.std::_Vector_base<const Expression *, std::allocator<const Expression *>>::_Vector_impl_data", ptr %7, i32 0, i32 0
  %9 = load ptr, ptr %8, align 8, !tbaa !148
  %10 = ptrtoint ptr %6 to i64
  %11 = ptrtoint ptr %9 to i64
  %12 = sub i64 %10, %11
  %13 = sdiv exact i64 %12, 8
  ret i64 %13
}

; Function Attrs: mustprogress uwtable
define dso_local noundef zeroext i1 @_ZNK18FunctionInvocation28has_uncertain_call_recursiveEv(ptr noundef nonnull align 8 dereferenceable(56) %0) #4 align 2 {
  %2 = alloca i1, align 1
  %3 = alloca ptr, align 8
  %4 = alloca i64, align 8
  %5 = alloca ptr, align 8
  %6 = alloca ptr, align 8
  %7 = alloca i32, align 4
  store ptr %0, ptr %3, align 8, !tbaa !15
  %8 = load ptr, ptr %3, align 8
  call void @llvm.lifetime.start.p0(i64 8, ptr %4) #3
  store i64 0, ptr %4, align 8, !tbaa !145
  br label %9

9:                                                ; preds = %39, %1
  %10 = load i64, ptr %4, align 8, !tbaa !145
  %11 = getelementptr inbounds nuw %class.FunctionInvocation, ptr %8, i32 0, i32 2
  %12 = call noundef i64 @_ZNKSt6vectorIPK10ExpressionSaIS2_EE4sizeEv(ptr noundef nonnull align 8 dereferenceable(24) %11) #3
  %13 = icmp ult i64 %10, %12
  br i1 %13, label %14, label %42

14:                                               ; preds = %9
  call void @llvm.lifetime.start.p0(i64 8, ptr %5) #3
  %15 = getelementptr inbounds nuw %class.FunctionInvocation, ptr %8, i32 0, i32 2
  %16 = load i64, ptr %4, align 8, !tbaa !145
  %17 = call noundef nonnull align 8 dereferenceable(8) ptr @_ZNKSt6vectorIPK10ExpressionSaIS2_EEixEm(ptr noundef nonnull align 8 dereferenceable(24) %15, i64 noundef %16) #3
  %18 = load ptr, ptr %17, align 8, !tbaa !90
  store ptr %18, ptr %5, align 8, !tbaa !90
  %19 = load ptr, ptr %5, align 8, !tbaa !90
  %20 = getelementptr inbounds nuw %class.Expression, ptr %19, i32 0, i32 1
  %21 = load i32, ptr %20, align 8, !tbaa !131
  %22 = icmp eq i32 %21, 2
  br i1 %22, label %23, label %35

23:                                               ; preds = %14
  call void @llvm.lifetime.start.p0(i64 8, ptr %6) #3
  %24 = load ptr, ptr %5, align 8, !tbaa !90
  store ptr %24, ptr %6, align 8, !tbaa !155
  %25 = load ptr, ptr %6, align 8, !tbaa !155
  %26 = load ptr, ptr %25, align 8, !tbaa !91
  %27 = getelementptr inbounds ptr, ptr %26, i64 11
  %28 = load ptr, ptr %27, align 8
  %29 = call noundef zeroext i1 %28(ptr noundef nonnull align 8 dereferenceable(32) %25)
  br i1 %29, label %30, label %31

30:                                               ; preds = %23
  store i1 true, ptr %2, align 1
  store i32 1, ptr %7, align 4
  br label %32

31:                                               ; preds = %23
  store i32 0, ptr %7, align 4
  br label %32

32:                                               ; preds = %31, %30
  call void @llvm.lifetime.end.p0(i64 8, ptr %6) #3
  %33 = load i32, ptr %7, align 4
  switch i32 %33, label %36 [
    i32 0, label %34
  ]

34:                                               ; preds = %32
  br label %35

35:                                               ; preds = %34, %14
  store i32 0, ptr %7, align 4
  br label %36

36:                                               ; preds = %35, %32
  call void @llvm.lifetime.end.p0(i64 8, ptr %5) #3
  %37 = load i32, ptr %7, align 4
  switch i32 %37, label %47 [
    i32 0, label %38
  ]

38:                                               ; preds = %36
  br label %39

39:                                               ; preds = %38
  %40 = load i64, ptr %4, align 8, !tbaa !145
  %41 = add i64 %40, 1
  store i64 %41, ptr %4, align 8, !tbaa !145
  br label %9, !llvm.loop !157

42:                                               ; preds = %9
  %43 = load ptr, ptr %8, align 8, !tbaa !91
  %44 = getelementptr inbounds ptr, ptr %43, i64 5
  %45 = load ptr, ptr %44, align 8
  %46 = call noundef zeroext i1 %45(ptr noundef nonnull align 8 dereferenceable(56) %8)
  store i1 %46, ptr %2, align 1
  store i32 1, ptr %7, align 4
  br label %47

47:                                               ; preds = %42, %36
  call void @llvm.lifetime.end.p0(i64 8, ptr %4) #3
  %48 = load i1, ptr %2, align 1
  ret i1 %48
}