; Function Attrs: mustprogress uwtable
define dso_local noundef zeroext i1 @_ZNK18FunctionInvocation28has_uncertain_call_recursiveEv(ptr noundef nonnull align 8 dereferenceable(56) %0) local_unnamed_addr #3 align 2 {
  %2 = getelementptr inbounds nuw i8, ptr %0, i64 16
  %3 = getelementptr inbounds nuw i8, ptr %0, i64 24
  %4 = load ptr, ptr %3, align 8, !tbaa !111
  %5 = load ptr, ptr %2, align 8, !tbaa !113
  %.not = icmp eq ptr %4, %5
  br i1 %.not, label %._crit_edge, label %.lr.ph

.lr.ph:                                           ; preds = %1, %.critedge
  %6 = phi ptr [ %18, %.critedge ], [ %5, %1 ]
  %7 = phi ptr [ %19, %.critedge ], [ %4, %1 ]
  %.01213 = phi i64 [ %20, %.critedge ], [ 0, %1 ]
  %8 = getelementptr inbounds nuw ptr, ptr %6, i64 %.01213
  %9 = load ptr, ptr %8, align 8, !tbaa !99
  %10 = getelementptr inbounds nuw i8, ptr %9, i64 8
  %11 = load i32, ptr %10, align 8, !tbaa !115
  %12 = icmp eq i32 %11, 2
  br i1 %12, label %13, label %.critedge

13:                                               ; preds = %.lr.ph
  %14 = load ptr, ptr %9, align 8, !tbaa !100
  %15 = getelementptr inbounds nuw i8, ptr %14, i64 88
  %16 = load ptr, ptr %15, align 8
  %17 = tail call noundef zeroext i1 %16(ptr noundef nonnull align 8 dereferenceable(32) %9)
  br i1 %17, label %.loopexit, label %..critedge_crit_edge

..critedge_crit_edge:                             ; preds = %13
  %.pre = load ptr, ptr %3, align 8, !tbaa !111
  %.pre14 = load ptr, ptr %2, align 8, !tbaa !113
  br label %.critedge

.critedge:                                        ; preds = %..critedge_crit_edge, %.lr.ph
  %18 = phi ptr [ %.pre14, %..critedge_crit_edge ], [ %6, %.lr.ph ]
  %19 = phi ptr [ %.pre, %..critedge_crit_edge ], [ %7, %.lr.ph ]
  %20 = add nuw i64 %.01213, 1
  %21 = ptrtoint ptr %19 to i64
  %22 = ptrtoint ptr %18 to i64
  %23 = sub i64 %21, %22
  %24 = ashr exact i64 %23, 3
  %25 = icmp ult i64 %20, %24
  br i1 %25, label %.lr.ph, label %._crit_edge, !llvm.loop !131

._crit_edge:                                      ; preds = %.critedge, %1
  %26 = load ptr, ptr %0, align 8, !tbaa !100
  %27 = getelementptr inbounds nuw i8, ptr %26, i64 40
  %28 = load ptr, ptr %27, align 8
  %29 = tail call noundef zeroext i1 %28(ptr noundef nonnull align 8 dereferenceable(56) %0)
  br label %.loopexit

.loopexit:                                        ; preds = %13, %._crit_edge
  %.4 = phi i1 [ %29, %._crit_edge ], [ true, %13 ]
  ret i1 %.4
}